target datalayout = "e-m:e-p270:32:32-p271:32:32-p272:64:64-i64:64-i128:128-f80:128-n8:16:32:64-S128"
target triple = "x86_64-pc-linux-gnu"

%struct.asn1_string_st = type { i32, i32, ptr, i64 }

@.str = private unnamed_addr constant [68 x i8] c"../openssl/providers/implementations/encode_decode/encode_key2any.c\00", align 1
@__func__.encode_dsa_params = private unnamed_addr constant [18 x i8] c"encode_dsa_params\00", align 1

; Function Attrs: nounwind uwtable
define internal i32 @encode_dsa_params(ptr noundef %0, i32 noundef %1, ptr noundef %2, ptr noundef %3) #0 {
  %5 = alloca i32, align 4
  %6 = alloca ptr, align 8
  %7 = alloca i32, align 4
  %8 = alloca ptr, align 8
  %9 = alloca ptr, align 8
  %10 = alloca ptr, align 8
  %11 = alloca i32, align 4
  store ptr %0, ptr %6, align 8, !tbaa !3
  store i32 %1, ptr %7, align 4, !tbaa !25
  store ptr %2, ptr %8, align 8, !tbaa !3
  store ptr %3, ptr %9, align 8, !tbaa !33
  call void @llvm.lifetime.start.p0(i64 8, ptr %10) #4
  %12 = call ptr @ASN1_STRING_new()
  store ptr %12, ptr %10, align 8, !tbaa !37
  %13 = load ptr, ptr %10, align 8, !tbaa !37
  %14 = icmp eq ptr %13, null
  br i1 %14, label %15, label %16

15:                                               ; preds = %4
  call void @ERR_new()
  call void @ERR_set_debug(ptr noundef @.str, i32 noundef 572, ptr noundef @__func__.encode_dsa_params)
  call void (i32, i32, ptr, ...) @ERR_set_error(i32 noundef 57, i32 noundef 524301, ptr noundef null)
  store i32 0, ptr %5, align 4
  store i32 1, ptr %11, align 4
  br label %33

16:                                               ; preds = %4
  %17 = load ptr, ptr %6, align 8, !tbaa !3
  %18 = load ptr, ptr %10, align 8, !tbaa !37
  %19 = getelementptr inbounds nuw %struct.asn1_string_st, ptr %18, i32 0, i32 2
  %20 = call i32 @i2d_DSAparams(ptr noundef %17, ptr noundef %19)
  %21 = load ptr, ptr %10, align 8, !tbaa !37
  %22 = getelementptr inbounds nuw %struct.asn1_string_st, ptr %21, i32 0, i32 0
  store i32 %20, ptr %22, align 8, !tbaa !44
  %23 = load ptr, ptr %10, align 8, !tbaa !37
  %24 = getelementptr inbounds nuw %struct.asn1_string_st, ptr %23, i32 0, i32 0
  %25 = load i32, ptr %24, align 8, !tbaa !44
  %26 = icmp sle i32 %25, 0
  br i1 %26, label %27, label %29

27:                                               ; preds = %16
  call void @ERR_new()
  call void @ERR_set_debug(ptr noundef @.str, i32 noundef 579, ptr noundef @__func__.encode_dsa_params)
  call void (i32, i32, ptr, ...) @ERR_set_error(i32 noundef 57, i32 noundef 524301, ptr noundef null)
  %28 = load ptr, ptr %10, align 8, !tbaa !37
  call void @ASN1_STRING_free(ptr noundef %28)
  store i32 0, ptr %5, align 4
  store i32 1, ptr %11, align 4
  br label %33

29:                                               ; preds = %16
  %30 = load ptr, ptr %9, align 8, !tbaa !33
  store i32 16, ptr %30, align 4, !tbaa !25
  %31 = load ptr, ptr %10, align 8, !tbaa !37
  %32 = load ptr, ptr %8, align 8, !tbaa !3
  store ptr %31, ptr %32, align 8, !tbaa !3
  store i32 1, ptr %5, align 4
  store i32 1, ptr %11, align 4
  br label %33

33:                                               ; preds = %29, %27, %15
  call void @llvm.lifetime.end.p0(i64 8, ptr %10) #4
  %34 = load i32, ptr %5, align 4
  ret i32 %34
}

; Function Attrs: nounwind uwtable
define internal i32 @prepare_dsa_params(ptr noundef %0, i32 noundef %1, i32 noundef %2, ptr noundef %3, ptr noundef %4) #0 {
  %6 = alloca i32, align 4
  %7 = alloca ptr, align 8
  %8 = alloca i32, align 4
  %9 = alloca i32, align 4
  %10 = alloca ptr, align 8
  %11 = alloca ptr, align 8
  %12 = alloca ptr, align 8
  %13 = alloca ptr, align 8
  %14 = alloca ptr, align 8
  %15 = alloca i32, align 4
  store ptr %0, ptr %7, align 8, !tbaa !3
  store i32 %1, ptr %8, align 4, !tbaa !25
  store i32 %2, ptr %9, align 4, !tbaa !25
  store ptr %3, ptr %10, align 8, !tbaa !3
  store ptr %4, ptr %11, align 8, !tbaa !33
  call void @llvm.lifetime.start.p0(i64 8, ptr %12) #4
  %16 = load ptr, ptr %7, align 8, !tbaa !3
  %17 = call ptr @DSA_get0_p(ptr noundef %16)
  store ptr %17, ptr %12, align 8, !tbaa !42
  call void @llvm.lifetime.start.p0(i64 8, ptr %13) #4
  %18 = load ptr, ptr %7, align 8, !tbaa !3
  %19 = call ptr @DSA_get0_q(ptr noundef %18)
  store ptr %19, ptr %13, align 8, !tbaa !42
  call void @llvm.lifetime.start.p0(i64 8, ptr %14) #4
  %20 = load ptr, ptr %7, align 8, !tbaa !3
  %21 = call ptr @DSA_get0_g(ptr noundef %20)
  store ptr %21, ptr %14, align 8, !tbaa !42
  %22 = load i32, ptr %9, align 4, !tbaa !25
  %23 = icmp ne i32 %22, 0
  br i1 %23, label %24, label %39

24:                                               ; preds = %5
  %25 = load ptr, ptr %12, align 8, !tbaa !42
  %26 = icmp ne ptr %25, null
  br i1 %26, label %27, label %39

27:                                               ; preds = %24
  %28 = load ptr, ptr %13, align 8, !tbaa !42
  %29 = icmp ne ptr %28, null
  br i1 %29, label %30, label %39

30:                                               ; preds = %27
  %31 = load ptr, ptr %14, align 8, !tbaa !42
  %32 = icmp ne ptr %31, null
  br i1 %32, label %33, label %39

33:                                               ; preds = %30
  %34 = load ptr, ptr %7, align 8, !tbaa !3
  %35 = load i32, ptr %8, align 4, !tbaa !25
  %36 = load ptr, ptr %10, align 8, !tbaa !3
  %37 = load ptr, ptr %11, align 8, !tbaa !33
  %38 = call i32 @encode_dsa_params(ptr noundef %34, i32 noundef %35, ptr noundef %36, ptr noundef %37)
  store i32 %38, ptr %6, align 4
  store i32 1, ptr %15, align 4
  br label %42

39:                                               ; preds = %30, %27, %24, %5
  %40 = load ptr, ptr %10, align 8, !tbaa !3
  store ptr null, ptr %40, align 8, !tbaa !3
  %41 = load ptr, ptr %11, align 8, !tbaa !33
  store i32 -1, ptr %41, align 4, !tbaa !25
  store i32 1, ptr %6, align 4
  store i32 1, ptr %15, align 4
  br label %42

42:                                               ; preds = %39, %33
  call void @llvm.lifetime.end.p0(i64 8, ptr %14) #4
  call void @llvm.lifetime.end.p0(i64 8, ptr %13) #4
  call void @llvm.lifetime.end.p0(i64 8, ptr %12) #4
  %43 = load i32, ptr %6, align 4
  ret i32 %43
}