; Function Attrs: nounwind uwtable
define internal range(i32 0, 2) i32 @prepare_dsa_params(ptr noundef %0, i32 %1, i32 noundef %2, ptr noundef writeonly captures(none) %3, ptr noundef writeonly captures(none) %4) #0 {
  %6 = tail call ptr @DSA_get0_p(ptr noundef %0) #5
  %7 = tail call ptr @DSA_get0_q(ptr noundef %0) #5
  %8 = tail call ptr @DSA_get0_g(ptr noundef %0) #5
  %9 = icmp ne i32 %2, 0
  %10 = icmp ne ptr %6, null
  %or.cond = select i1 %9, i1 %10, i1 false
  %11 = icmp ne ptr %7, null
  %or.cond3 = select i1 %or.cond, i1 %11, i1 false
  %12 = icmp ne ptr %8, null
  %or.cond5 = select i1 %or.cond3, i1 %12, i1 false
  br i1 %or.cond5, label %13, label %23

13:                                               ; preds = %5
  %14 = tail call ptr @ASN1_STRING_new() #5
  %15 = icmp eq ptr %14, null
  br i1 %15, label %16, label %17

16:                                               ; preds = %13
  tail call void @ERR_new() #5
  tail call void @ERR_set_debug(ptr noundef nonnull @.str, i32 noundef 572, ptr noundef nonnull @__func__.encode_dsa_params) #5
  tail call void (i32, i32, ptr, ...) @ERR_set_error(i32 noundef 57, i32 noundef 524301, ptr noundef null) #5
  br label %encode_dsa_params.exit

17:                                               ; preds = %13
  %18 = getelementptr inbounds nuw i8, ptr %14, i64 8
  %19 = tail call i32 @i2d_DSAparams(ptr noundef %0, ptr noundef nonnull %18) #5
  store i32 %19, ptr %14, align 8, !tbaa !25
  %20 = icmp slt i32 %19, 1
  br i1 %20, label %21, label %22

21:                                               ; preds = %17
  tail call void @ERR_new() #5
  tail call void @ERR_set_debug(ptr noundef nonnull @.str, i32 noundef 579, ptr noundef nonnull @__func__.encode_dsa_params) #5
  tail call void (i32, i32, ptr, ...) @ERR_set_error(i32 noundef 57, i32 noundef 524301, ptr noundef null) #5
  tail call void @ASN1_STRING_free(ptr noundef nonnull %14) #5
  br label %encode_dsa_params.exit

22:                                               ; preds = %17
  store i32 16, ptr %4, align 4, !tbaa !20
  store ptr %14, ptr %3, align 8, !tbaa !21
  br label %encode_dsa_params.exit

23:                                               ; preds = %5
  store ptr null, ptr %3, align 8, !tbaa !21
  store i32 -1, ptr %4, align 4, !tbaa !20
  br label %encode_dsa_params.exit

encode_dsa_params.exit:                           ; preds = %22, %21, %16, %23
  %.0 = phi i32 [ 1, %23 ], [ 0, %16 ], [ 0, %21 ], [ 1, %22 ]
  ret i32 %.0
}